target datalayout = "e-m:e-p270:32:32-p271:32:32-p272:64:64-i64:64-i128:128-f80:128-n8:16:32:64-S128"
target triple = "x86_64-pc-linux-gnu"

%struct.CvMoments = type { double, double, double, double, double, double, double, double, double, double, double, double, double, double, double, double, double, double }

; Function Attrs: mustprogress uwtable
define double @cvGetNormalizedCentralMoment(ptr noundef %0, i32 noundef %1, i32 noundef %2) #1 {
  %4 = alloca ptr, align 8
  %5 = alloca i32, align 4
  %6 = alloca i32, align 4
  %7 = alloca i32, align 4
  %8 = alloca double, align 8
  %9 = alloca double, align 8
  store ptr %0, ptr %4, align 8
  store i32 %1, ptr %5, align 4
  store i32 %2, ptr %6, align 4
  %10 = load i32, ptr %5, align 4
  %11 = load i32, ptr %6, align 4
  %12 = add nsw i32 %10, %11
  store i32 %12, ptr %7, align 4
  %13 = load ptr, ptr %4, align 8
  %14 = load i32, ptr %5, align 4
  %15 = load i32, ptr %6, align 4
  %16 = call double @cvGetCentralMoment(ptr noundef %13, i32 noundef %14, i32 noundef %15)
  store double %16, ptr %8, align 8
  %17 = load ptr, ptr %4, align 8
  %18 = getelementptr inbounds %struct.CvMoments, ptr %17, i32 0, i32 17
  %19 = load double, ptr %18, align 8
  store double %19, ptr %9, align 8
  br label %20

20:                                               ; preds = %24, %3
  %21 = load i32, ptr %7, align 4
  %22 = add nsw i32 %21, -1
  store i32 %22, ptr %7, align 4
  %23 = icmp sge i32 %22, 0
  br i1 %23, label %24, label %28

24:                                               ; preds = %20
  %25 = load double, ptr %9, align 8
  %26 = load double, ptr %8, align 8
  %27 = fmul double %26, %25
  store double %27, ptr %8, align 8
  br label %20, !llvm.loop !24

28:                                               ; preds = %20
  %29 = load double, ptr %8, align 8
  %30 = load double, ptr %9, align 8
  %31 = fmul double %29, %30
  %32 = load double, ptr %9, align 8
  %33 = fmul double %31, %32
  ret double %33
}