; Function Attrs: mustprogress uwtable
define double @cvGetNormalizedCentralMoment(ptr noundef %0, i32 noundef %1, i32 noundef %2) local_unnamed_addr #2 {
  %4 = add nsw i32 %2, %1
  %5 = tail call double @cvGetCentralMoment(ptr noundef %0, i32 noundef %1, i32 noundef %2)
  %6 = getelementptr inbounds i8, ptr %0, i64 136
  %7 = load double, ptr %6, align 8
  %8 = icmp sgt i32 %4, 0
  br i1 %8, label %.lr.ph, label %._crit_edge

.lr.ph:                                           ; preds = %3, %.lr.ph
  %.014 = phi i32 [ %9, %.lr.ph ], [ %4, %3 ]
  %.01113 = phi double [ %10, %.lr.ph ], [ %5, %3 ]
  %9 = add nsw i32 %.014, -1
  %10 = fmul double %7, %.01113
  %11 = icmp ugt i32 %.014, 1
  br i1 %11, label %.lr.ph, label %._crit_edge, !llvm.loop !34

._crit_edge:                                      ; preds = %.lr.ph, %3
  %.011.lcssa = phi double [ %5, %3 ], [ %10, %.lr.ph ]
  %12 = fmul double %7, %.011.lcssa
  %13 = fmul double %7, %12
  ret double %13
}